(dp1
S'sage.sandpiles.all'
p2
(lp3
S'Sandpile'
p4
aS'SandpileConfig'
p5
aS'SandpileDivisor'
p6
aS'absolute_import'
p7
aS'firing_graph'
p8
aS'lazy_import'
p9
aS'parallel_firing_graph'
p10
aS'random_DAG'
p11
aS'sandpiles'
p12
aS'triangle_sandpile'
p13
aS'wilmes_algorithm'
p14
asS'sage.dynamics.interval_exchanges.all'
p15
(lp16
S'iet'
p17
ag9
asS'sage.dynamics.flat_surfaces.all'
p18
(lp19
S'AbelianStrata'
p20
aS'AbelianStratum'
p21
aS'QuadraticStratum'
p22
ag9
as.